target datalayout = "e-m:e-p270:32:32-p271:32:32-p272:64:64-i64:64-i128:128-f80:128-n8:16:32:64-S128"
target triple = "x86_64-pc-linux-gnu"

%struct.tm = type { i32, i32, i32, i32, i32, i32, i32, i32, i32, i64, ptr }

@.str.1 = private unnamed_addr constant [10 x i8] c"-infinity\00", align 1
@.str.2 = private unnamed_addr constant [9 x i8] c"infinity\00", align 1

; Function Attrs: nounwind uwtable
define internal void @EncodeSpecialTimestamp(i64 noundef %0, ptr noundef %1) #0 {
  %3 = alloca i64, align 8
  %4 = alloca ptr, align 8
  store i64 %0, ptr %3, align 8
  store ptr %1, ptr %4, align 8
  %5 = load i64, ptr %3, align 8
  %6 = icmp eq i64 %5, -9223372036854775808
  br i1 %6, label %7, label %10

7:                                                ; preds = %2
  %8 = load ptr, ptr %4, align 8
  %9 = call ptr @strcpy(ptr noundef %8, ptr noundef @.str.1) #11
  br label %18

10:                                               ; preds = %2
  %11 = load i64, ptr %3, align 8
  %12 = icmp eq i64 %11, 9223372036854775807
  br i1 %12, label %13, label %16

13:                                               ; preds = %10
  %14 = load ptr, ptr %4, align 8
  %15 = call ptr @strcpy(ptr noundef %14, ptr noundef @.str.2) #11
  br label %17

16:                                               ; preds = %10
  call void @abort() #14
  unreachable

17:                                               ; preds = %13
  br label %18

18:                                               ; preds = %17, %7
  ret void
}

; Function Attrs: nounwind uwtable
define ptr @PGTYPEStimestamp_to_asc(i64 noundef %0) #0 {
  %2 = alloca ptr, align 8
  %3 = alloca i64, align 8
  %4 = alloca %struct.tm, align 8
  %5 = alloca ptr, align 8
  %6 = alloca [129 x i8], align 16
  %7 = alloca i32, align 4
  %8 = alloca i32, align 4
  %9 = alloca i32, align 4
  store i64 %0, ptr %3, align 8
  call void @llvm.lifetime.start.p0(i64 56, ptr %4) #11
  call void @llvm.lifetime.start.p0(i64 8, ptr %5) #11
  store ptr %4, ptr %5, align 8
  call void @llvm.lifetime.start.p0(i64 129, ptr %6) #11
  call void @llvm.lifetime.start.p0(i64 4, ptr %7) #11
  call void @llvm.lifetime.start.p0(i64 4, ptr %8) #11
  store i32 1, ptr %8, align 4
  %10 = load i64, ptr %3, align 8
  %11 = icmp eq i64 %10, -9223372036854775808
  br i1 %11, label %15, label %12

12:                                               ; preds = %1
  %13 = load i64, ptr %3, align 8
  %14 = icmp eq i64 %13, 9223372036854775807
  br i1 %14, label %15, label %18

15:                                               ; preds = %12, %1
  %16 = load i64, ptr %3, align 8
  %17 = getelementptr inbounds [129 x i8], ptr %6, i64 0, i64 0
  call void @EncodeSpecialTimestamp(i64 noundef %16, ptr noundef %17)
  br label %31

18:                                               ; preds = %12
  %19 = load i64, ptr %3, align 8
  %20 = load ptr, ptr %5, align 8
  %21 = call i32 @timestamp2tm(i64 noundef %19, ptr noundef null, ptr noundef %20, ptr noundef %7, ptr noundef null)
  %22 = icmp eq i32 %21, 0
  br i1 %22, label %23, label %28

23:                                               ; preds = %18
  %24 = load ptr, ptr %5, align 8
  %25 = load i32, ptr %7, align 4
  %26 = load i32, ptr %8, align 4
  %27 = getelementptr inbounds [129 x i8], ptr %6, i64 0, i64 0
  call void @EncodeDateTime(ptr noundef %24, i32 noundef %25, i1 noundef zeroext false, i32 noundef 0, ptr noundef null, i32 noundef %26, ptr noundef %27, i1 noundef zeroext false)
  br label %30

28:                                               ; preds = %18
  %29 = call ptr @__errno_location() #13
  store i32 320, ptr %29, align 4
  store ptr null, ptr %2, align 8
  store i32 1, ptr %9, align 4
  br label %34

30:                                               ; preds = %23
  br label %31

31:                                               ; preds = %30, %15
  %32 = getelementptr inbounds [129 x i8], ptr %6, i64 0, i64 0
  %33 = call ptr @pgtypes_strdup(ptr noundef %32)
  store ptr %33, ptr %2, align 8
  store i32 1, ptr %9, align 4
  br label %34

34:                                               ; preds = %31, %28
  call void @llvm.lifetime.end.p0(i64 4, ptr %8) #11
  call void @llvm.lifetime.end.p0(i64 4, ptr %7) #11
  call void @llvm.lifetime.end.p0(i64 129, ptr %6) #11
  call void @llvm.lifetime.end.p0(i64 8, ptr %5) #11
  call void @llvm.lifetime.end.p0(i64 56, ptr %4) #11
  %35 = load ptr, ptr %2, align 8
  ret ptr %35
}