; Function Attrs: nounwind uwtable
define ptr @PGTYPEStimestamp_to_asc(i64 noundef %0) local_unnamed_addr #0 {
  %2 = alloca %struct.tm, align 8
  %3 = alloca [129 x i8], align 16
  %4 = alloca i32, align 4
  call void @llvm.lifetime.start.p0(i64 56, ptr nonnull %2) #10
  call void @llvm.lifetime.start.p0(i64 129, ptr nonnull %3) #10
  call void @llvm.lifetime.start.p0(i64 4, ptr nonnull %4) #10
  %5 = add i64 %0, -9223372036854775807
  %or.cond = icmp ult i64 %5, 2
  br i1 %or.cond, label %6, label %9

6:                                                ; preds = %1
  %switch = icmp eq i64 %0, -9223372036854775808
  br i1 %switch, label %7, label %8

7:                                                ; preds = %6
  call void @llvm.memcpy.p0.p0.i64(ptr noundef nonnull align 16 dereferenceable(10) %3, ptr noundef nonnull align 1 dereferenceable(10) @.str.1, i64 10, i1 false) #10
  br label %EncodeSpecialTimestamp.exit

8:                                                ; preds = %6
  call void @llvm.memcpy.p0.p0.i64(ptr noundef nonnull align 16 dereferenceable(9) %3, ptr noundef nonnull align 1 dereferenceable(9) @.str.2, i64 9, i1 false) #10
  br label %EncodeSpecialTimestamp.exit

9:                                                ; preds = %1
  %10 = call fastcc i32 @timestamp2tm(i64 noundef %0, ptr noundef %2, ptr noundef %4)
  %11 = icmp eq i32 %10, 0
  br i1 %11, label %12, label %14

12:                                               ; preds = %9
  %13 = load i32, ptr %4, align 4
  call void @EncodeDateTime(ptr noundef nonnull %2, i32 noundef %13, i1 noundef zeroext false, i32 noundef 0, ptr noundef null, i32 noundef 1, ptr noundef nonnull %3, i1 noundef zeroext false) #10
  br label %EncodeSpecialTimestamp.exit

14:                                               ; preds = %9
  %15 = tail call ptr @__errno_location() #12
  store i32 320, ptr %15, align 4
  br label %17

EncodeSpecialTimestamp.exit:                      ; preds = %8, %7, %12
  %16 = call ptr @pgtypes_strdup(ptr noundef nonnull %3) #10
  br label %17

17:                                               ; preds = %EncodeSpecialTimestamp.exit, %14
  %.0 = phi ptr [ %16, %EncodeSpecialTimestamp.exit ], [ null, %14 ]
  call void @llvm.lifetime.end.p0(i64 4, ptr nonnull %4) #10
  call void @llvm.lifetime.end.p0(i64 129, ptr nonnull %3) #10
  call void @llvm.lifetime.end.p0(i64 56, ptr nonnull %2) #10
  ret ptr %.0
}